target datalayout = "e-m:e-p270:32:32-p271:32:32-p272:64:64-i64:64-i128:128-f80:128-n8:16:32:64-S128"
target triple = "x86_64-pc-linux-gnu"

%struct.ACLCategoryItem = type { ptr, i64 }
%struct.redisServer = type { i32, i64, ptr, ptr, ptr, i32, i32, i32, i32, i32, ptr, ptr, ptr, ptr, ptr, i32, i32, i32, i32, i64, i32, i32, i32, i32, ptr, i32, i32, [41 x i8], i32, i64, i32, i32, i32, ptr, ptr, i32, i32, i64, ptr, ptr, ptr, ptr, [2 x i32], i32, i32, i32, i32, i32, i32, [16 x ptr], i32, ptr, ptr, i32, [8 x %struct.connListener], i32, %struct.connListener, ptr, ptr, ptr, ptr, ptr, ptr, ptr, ptr, ptr, ptr, i32, ptr, i32, ptr, [3 x %struct.pause_event], [256 x i8], ptr, i64, i32, i32, [128 x i32], i32, i32, i64, i32, i32, i32, i32, i32, i64, i64, i64, i64, i64, i64, i64, i64, i64, i64, double, i64, i64, i64, i64, i64, i64, i64, i64, i64, i64, i64, i64, i64, i64, i64, i64, i64, i64, i64, i64, i64, double, i64, i64, i64, i64, i64, ptr, i64, i64, i64, %struct.malloc_stats, i64, i64, i64, i64, i64, i64, i64, i64, i64, i64, i64, i64, double, [4 x i64], i64, i64, i64, i64, [128 x i64], [128 x i64], i64, i64, [7 x %struct.anon], i64, i64, i64, i64, i64, i64, [4 x %struct.durationStats], i32, i32, i32, i32, i32, i32, i32, i32, i32, i32, i32, i32, i64, i32, i32, i32, i32, i64, i64, i32, i32, i32, i32, i32, ptr, [3 x %struct.clientBufferLimitsConfig], i32, i32, i32, ptr, i32, i32, i32, i32, i32, i32, ptr, ptr, i32, i32, i64, i64, i64, i64, i64, i32, i32, ptr, i32, i32, i64, i64, i64, i64, i64, i32, i32, i64, i32, i32, i32, i32, i32, i32, i32, i32, ptr, i32, i64, i64, i64, i64, i32, ptr, i32, ptr, i32, i32, i32, i64, i64, i64, i64, i32, i32, i32, i32, i32, i32, ptr, i32, i32, ptr, i32, i32, i32, [2 x i32], i32, %struct.redisOpArray, i32, ptr, i32, ptr, i32, i32, i32, i32, i32, i32, i32, [41 x i8], [41 x i8], i64, i64, i64, i64, i32, i32, ptr, i64, i64, %struct.replDataBuf, i64, i64, i32, i32, i32, i32, i32, i32, i32, i32, i32, i64, ptr, i64, ptr, ptr, ptr, i32, i32, ptr, ptr, i32, i32, i32, i64, i64, i64, i64, ptr, ptr, i32, ptr, i64, i32, i32, i32, i64, i32, i32, i32, i32, ptr, i32, i32, [41 x i8], i64, i32, ptr, i32, i32, i64, i64, i32, i32, i32, i32, i32, i64, [3 x i32], i32, i32, i32, [10 x i32], ptr, ptr, i32, i64, ptr, ptr, i32, i32, i32, i32, i64, i64, i64, i64, i64, i64, i64, i64, i64, i64, i32, i32, i64, i64, i32, i64, i64, i64, i64, i64, ptr, ptr, i32, ptr, i32, i32, i32, i32, i64, i64, ptr, ptr, i32, i32, i32, i32, i32, ptr, ptr, ptr, i32, i32, i32, i32, i32, i32, i32, i64, i32, i32, i64, i32, i32, i32, i32, i32, i32, i32, i64, ptr, ptr, i64, ptr, i32, %struct.aclInfo, i32, i64, i32, i32, i32, %struct.redisTLSContextConfig, ptr, ptr, ptr, ptr, ptr, i64, i32, ptr, i32, i32, i32, i64, i32, ptr }
%struct.connListener = type { [16 x i32], i32, ptr, i32, i32, ptr, ptr }
%struct.pause_event = type { i32, i64 }
%struct.malloc_stats = type { i64, i64, i64, i64, i64, i64, i64, i64, i64, i64, i64 }
%struct.anon = type { i64, i64, [16 x i64], i32 }
%struct.durationStats = type { i64, i64, i64 }
%struct.clientBufferLimitsConfig = type { i64, i64, i64 }
%struct.redisOpArray = type { ptr, i32, i32 }
%struct.replDataBuf = type { ptr, i64, i64, i64, i64 }
%struct.aclInfo = type { i64, i64, i64, i64 }
%struct.redisTLSContextConfig = type { ptr, ptr, ptr, ptr, ptr, ptr, ptr, ptr, ptr, ptr, ptr, ptr, i32, i32, i32, i32 }

@ACLCommandCategories = internal global ptr null, align 8
@server = external global %struct.redisServer, align 8

; Function Attrs: nounwind uwtable
define dso_local i64 @ACLGetCommandCategoryFlagByName(ptr noundef %0) #0 {
  %2 = alloca i64, align 8
  %3 = alloca ptr, align 8
  %4 = alloca i32, align 4
  %5 = alloca i32, align 4
  store ptr %0, ptr %3, align 8, !tbaa !5
  call void @llvm.lifetime.start.p0(i64 4, ptr %4) #14
  store i32 0, ptr %4, align 4, !tbaa !17
  br label %6

6:                                                ; preds = %33, %1
  %7 = load ptr, ptr @ACLCommandCategories, align 8, !tbaa !12
  %8 = load i32, ptr %4, align 4, !tbaa !17
  %9 = sext i32 %8 to i64
  %10 = getelementptr inbounds %struct.ACLCategoryItem, ptr %7, i64 %9
  %11 = getelementptr inbounds nuw %struct.ACLCategoryItem, ptr %10, i32 0, i32 1
  %12 = load i64, ptr %11, align 8, !tbaa !16
  %13 = icmp ne i64 %12, 0
  br i1 %13, label %15, label %14

14:                                               ; preds = %6
  store i32 2, ptr %5, align 4
  br label %36

15:                                               ; preds = %6
  %16 = load ptr, ptr %3, align 8, !tbaa !5
  %17 = load ptr, ptr @ACLCommandCategories, align 8, !tbaa !12
  %18 = load i32, ptr %4, align 4, !tbaa !17
  %19 = sext i32 %18 to i64
  %20 = getelementptr inbounds %struct.ACLCategoryItem, ptr %17, i64 %19
  %21 = getelementptr inbounds nuw %struct.ACLCategoryItem, ptr %20, i32 0, i32 0
  %22 = load ptr, ptr %21, align 8, !tbaa !14
  %23 = call i32 @strcasecmp(ptr noundef %16, ptr noundef %22) #17
  %24 = icmp ne i32 %23, 0
  br i1 %24, label %32, label %25

25:                                               ; preds = %15
  %26 = load ptr, ptr @ACLCommandCategories, align 8, !tbaa !12
  %27 = load i32, ptr %4, align 4, !tbaa !17
  %28 = sext i32 %27 to i64
  %29 = getelementptr inbounds %struct.ACLCategoryItem, ptr %26, i64 %28
  %30 = getelementptr inbounds nuw %struct.ACLCategoryItem, ptr %29, i32 0, i32 1
  %31 = load i64, ptr %30, align 8, !tbaa !16
  store i64 %31, ptr %2, align 8
  store i32 1, ptr %5, align 4
  br label %36

32:                                               ; preds = %15
  br label %33

33:                                               ; preds = %32
  %34 = load i32, ptr %4, align 4, !tbaa !17
  %35 = add nsw i32 %34, 1
  store i32 %35, ptr %4, align 4, !tbaa !17
  br label %6, !llvm.loop !31

36:                                               ; preds = %25, %14
  call void @llvm.lifetime.end.p0(i64 4, ptr %4) #14
  %37 = load i32, ptr %5, align 4
  switch i32 %37, label %41 [
    i32 2, label %38
    i32 1, label %39
  ]

38:                                               ; preds = %36
  store i64 0, ptr %2, align 8
  br label %39

39:                                               ; preds = %38, %36
  %40 = load i64, ptr %2, align 8
  ret i64 %40

41:                                               ; preds = %36
  unreachable
}

; Function Attrs: nounwind uwtable
define dso_local i32 @ACLSetSelectorCategory(ptr noundef %0, ptr noundef %1, i32 noundef %2) #0 {
  %4 = alloca i32, align 4
  %5 = alloca ptr, align 8
  %6 = alloca ptr, align 8
  %7 = alloca i32, align 4
  %8 = alloca i64, align 8
  %9 = alloca i32, align 4
  store ptr %0, ptr %5, align 8, !tbaa !32
  store ptr %1, ptr %6, align 8, !tbaa !5
  store i32 %2, ptr %7, align 4, !tbaa !17
  call void @llvm.lifetime.start.p0(i64 8, ptr %8) #14
  %10 = load ptr, ptr %6, align 8, !tbaa !5
  %11 = getelementptr inbounds i8, ptr %10, i64 1
  %12 = call i64 @ACLGetCommandCategoryFlagByName(ptr noundef %11)
  store i64 %12, ptr %8, align 8, !tbaa !10
  %13 = load i64, ptr %8, align 8, !tbaa !10
  %14 = icmp ne i64 %13, 0
  br i1 %14, label %16, label %15

15:                                               ; preds = %3
  store i32 -1, ptr %4, align 4
  store i32 1, ptr %9, align 4
  br label %24

16:                                               ; preds = %3
  %17 = load ptr, ptr %5, align 8, !tbaa !32
  %18 = load ptr, ptr %6, align 8, !tbaa !5
  %19 = load i32, ptr %7, align 4, !tbaa !17
  call void @ACLUpdateCommandRules(ptr noundef %17, ptr noundef %18, i32 noundef %19)
  %20 = load ptr, ptr getelementptr inbounds nuw (%struct.redisServer, ptr @server, i32 0, i32 12), align 8, !tbaa !137
  %21 = load ptr, ptr %5, align 8, !tbaa !32
  %22 = load i64, ptr %8, align 8, !tbaa !10
  %23 = load i32, ptr %7, align 4, !tbaa !17
  call void @ACLSetSelectorCommandBitsForCategory(ptr noundef %20, ptr noundef %21, i64 noundef %22, i32 noundef %23)
  store i32 0, ptr %4, align 4
  store i32 1, ptr %9, align 4
  br label %24

24:                                               ; preds = %16, %15
  call void @llvm.lifetime.end.p0(i64 8, ptr %8) #14
  %25 = load i32, ptr %4, align 4
  ret i32 %25
}