; Function Attrs: nounwind uwtable
define dso_local range(i32 -1, 1) i32 @ACLSetSelectorCategory(ptr noundef captures(none) %0, ptr noundef %1, i32 noundef %2) local_unnamed_addr #0 {
  %4 = getelementptr inbounds nuw i8, ptr %1, i64 1
  %5 = load ptr, ptr @ACLCommandCategories, align 8, !tbaa !9
  %6 = getelementptr inbounds nuw i8, ptr %5, i64 8
  %7 = load i64, ptr %6, align 8, !tbaa !15
  %.not9.i = icmp eq i64 %7, 0
  br i1 %.not9.i, label %ACLGetCommandCategoryFlagByName.exit.thread, label %.lr.ph.i.preheader

.lr.ph.i.preheader:                               ; preds = %3
  %8 = load ptr, ptr %5, align 8, !tbaa !12
  %9 = tail call i32 @strcasecmp(ptr noundef nonnull readonly %4, ptr noundef %8) #29
  %.not8.i12 = icmp eq i32 %9, 0
  br i1 %.not8.i12, label %ACLGetCommandCategoryFlagByName.exit, label %.lr.ph

.lr.ph:                                           ; preds = %.lr.ph.i.preheader, %.lr.ph.i
  %indvars.iv.i13 = phi i64 [ %indvars.iv.next.i, %.lr.ph.i ], [ 0, %.lr.ph.i.preheader ]
  %indvars.iv.next.i = add nuw nsw i64 %indvars.iv.i13, 1
  %10 = getelementptr inbounds nuw %struct.ACLCategoryItem, ptr %5, i64 %indvars.iv.next.i, i32 1
  %11 = load i64, ptr %10, align 8, !tbaa !15
  %.not.i = icmp eq i64 %11, 0
  br i1 %.not.i, label %ACLGetCommandCategoryFlagByName.exit.thread, label %.lr.ph.i, !llvm.loop !28

.lr.ph.i:                                         ; preds = %.lr.ph
  %12 = getelementptr inbounds nuw %struct.ACLCategoryItem, ptr %5, i64 %indvars.iv.next.i
  %13 = load ptr, ptr %12, align 8, !tbaa !12
  %14 = tail call i32 @strcasecmp(ptr noundef nonnull readonly %4, ptr noundef %13) #29
  %.not8.i = icmp eq i32 %14, 0
  br i1 %.not8.i, label %ACLGetCommandCategoryFlagByName.exit, label %.lr.ph, !llvm.loop !28

ACLGetCommandCategoryFlagByName.exit:             ; preds = %.lr.ph.i, %.lr.ph.i.preheader
  %.lcssa = phi i64 [ %7, %.lr.ph.i.preheader ], [ %11, %.lr.ph.i ]
  tail call void @ACLUpdateCommandRules(ptr noundef %0, ptr noundef nonnull %1, i32 noundef %2)
  %15 = load ptr, ptr getelementptr inbounds nuw (i8, ptr @server, i64 80), align 8, !tbaa !129
  tail call void @ACLSetSelectorCommandBitsForCategory(ptr noundef %15, ptr noundef %0, i64 noundef %.lcssa, i32 noundef %2)
  br label %ACLGetCommandCategoryFlagByName.exit.thread

ACLGetCommandCategoryFlagByName.exit.thread:      ; preds = %.lr.ph, %3, %ACLGetCommandCategoryFlagByName.exit
  %.0 = phi i32 [ 0, %ACLGetCommandCategoryFlagByName.exit ], [ -1, %3 ], [ -1, %.lr.ph ]
  ret i32 %.0
}